; Function Attrs: mustprogress uwtable
define void @_ZN6marisa8grimoire2io6Mapper4openEPKvm(ptr noundef nonnull align 8 captures(none) dereferenceable(36) %0, ptr noundef %1, i64 noundef %2) local_unnamed_addr #6 align 2 personality ptr @__gxx_personality_v0 {
  %4 = alloca %"class.marisa::grimoire::io::Mapper", align 8
  %5 = icmp eq ptr %1, null
  %6 = icmp ne i64 %2, 0
  %or.cond = and i1 %5, %6
  br i1 %or.cond, label %7, label %13

7:                                                ; preds = %3
  %8 = tail call ptr @__cxa_allocate_exception(i64 32) #15
  store ptr getelementptr inbounds nuw inrange(-16, 24) (i8, ptr @_ZTVN6marisa9ExceptionE, i64 16), ptr %8, align 8, !tbaa !13
  %9 = getelementptr inbounds nuw i8, ptr %8, i64 8
  store ptr @.str, ptr %9, align 8, !tbaa !15
  %10 = getelementptr inbounds nuw i8, ptr %8, i64 16
  store i32 63, ptr %10, align 8, !tbaa !20
  %11 = getelementptr inbounds nuw i8, ptr %8, i64 20
  store i32 2, ptr %11, align 4, !tbaa !21
  %12 = getelementptr inbounds nuw i8, ptr %8, i64 24
  store ptr @.str.2, ptr %12, align 8, !tbaa !22
  tail call void @__cxa_throw(ptr nonnull %8, ptr nonnull @_ZTIN6marisa9ExceptionE, ptr nonnull @_ZNSt9exceptionD2Ev) #17
  unreachable

13:                                               ; preds = %3
  call void @llvm.lifetime.start.p0(i64 40, ptr nonnull %4) #15
  call void @_ZN6marisa8grimoire2io6MapperC1Ev(ptr noundef nonnull align 8 dereferenceable(36) %4)
  %14 = getelementptr inbounds nuw i8, ptr %4, i64 16
  %15 = load ptr, ptr %0, align 8, !tbaa !23
  store ptr %1, ptr %0, align 8, !tbaa !23
  store ptr %15, ptr %4, align 8, !tbaa !23
  %16 = getelementptr inbounds nuw i8, ptr %0, i64 16
  %17 = load i64, ptr %16, align 8, !tbaa !24
  store i64 %2, ptr %16, align 8, !tbaa !24
  store i64 %17, ptr %14, align 8, !tbaa !24
  %18 = getelementptr inbounds nuw i8, ptr %0, i64 8
  %19 = getelementptr inbounds nuw i8, ptr %4, i64 8
  %20 = load ptr, ptr %18, align 8, !tbaa !23
  %21 = load ptr, ptr %19, align 8, !tbaa !23
  store ptr %21, ptr %18, align 8, !tbaa !23
  store ptr %20, ptr %19, align 8, !tbaa !23
  %22 = getelementptr inbounds nuw i8, ptr %0, i64 24
  %23 = getelementptr inbounds nuw i8, ptr %4, i64 24
  %24 = load i64, ptr %22, align 8, !tbaa !24
  %25 = load i64, ptr %23, align 8, !tbaa !24
  store i64 %25, ptr %22, align 8, !tbaa !24
  store i64 %24, ptr %23, align 8, !tbaa !24
  %26 = getelementptr inbounds nuw i8, ptr %0, i64 32
  %27 = getelementptr inbounds nuw i8, ptr %4, i64 32
  %28 = load i32, ptr %26, align 8, !tbaa !25
  %29 = load i32, ptr %27, align 8, !tbaa !25
  store i32 %29, ptr %26, align 8, !tbaa !25
  store i32 %28, ptr %27, align 8, !tbaa !25
  call void @_ZN6marisa8grimoire2io6MapperD1Ev(ptr noundef nonnull align 8 dereferenceable(36) %4) #15
  call void @llvm.lifetime.end.p0(i64 40, ptr nonnull %4) #15
  ret void
}